(lp1
(I28
S'kcat * E * S / (Km + S)'
p2
(dp3
S'S'
(S'reactant'
p4
I509
I10
tp5
sS'E'
(S'modifier'
p6
I524
I461
tp7
sS'kcat'
p8
(S'parameter'
p9
I25
I25
tp10
sS'Km'
p11
(g9
I371
I371
tp12
stp13
a(I28
S'Vmax * S / (Km + S)'
p14
(dp15
S'Vmax'
p16
(g9
I324
I324
tp17
sS'S'
(g4
I509
I10
tp18
sg11
(g9
I371
I371
tp19
stp20
a(I28
S'R1 * R2 / c'
p21
(dp22
S'c'
(g9
I36
I36
tp23
sS'R1'
p24
(g4
I509
I10
tp25
sS'R2'
p26
(g4
I509
I10
tp27
stp28
a(I28
S'kcat * E * S / (Km + E)'
p29
(dp30
S'S'
(g4
I509
I10
tp31
sS'E'
(g6
I524
I461
tp32
sg8
(g9
I25
I25
tp33
sg11
(g9
I371
I371
tp34
stp35
a(I49
S'k * M'
p36
(dp37
S'k'
(g9
I35
I35
tp38
sS'M'
(g6
I524
I461
tp39
stp40
a(I45
S'k * M * R'
p41
(dp42
S'k'
(g9
I36
I36
tp43
sS'R'
(g4
I509
I10
tp44
sS'M'
(S'reactant,product'
p45
I524
I461
tp46
stp47
a(I47
S'k'
(dp48
S'k'
(S'parameter'
p49
I48
I48
tp50
stp51
a(I70
S'kf - kr * P'
(dp52
S'kr'
p53
(g49
I38
I38
tp54
sS'kf'
p55
(g49
I48
I48
tp56
sS'P'
(S'product'
p57
I512
I11
tp58
stp59
a(I72
S'kf - kr * P * P'
(dp60
S'kr'
p61
(g49
I39
I39
tp62
sS'kf'
p63
(g49
I48
I48
tp64
sS'P'
(g57
I512
I11
tp65
stp66
a(I73
S'kf - kr * P1 * P2'
(dp67
S'P2'
p68
(g57
I512
I11
tp69
sS'kr'
p70
(g49
I39
I39
tp71
sS'P1'
p72
(g57
I512
I11
tp73
sS'kf'
p74
(g49
I48
I48
tp75
stp76
a(I75
S'kf - kr * P * P * P'
(dp77
S'kr'
p78
(g49
I40
I40
tp79
sS'kf'
p80
(g49
I48
I48
tp81
sS'P'
(g57
I512
I11
tp82
stp83
a(I76
S'kf - kr * P1 * P2 * P2'
(dp84
S'P2'
p85
(g57
I512
I11
tp86
sS'kr'
p87
(g49
I40
I40
tp88
sS'P1'
p89
(g57
I512
I11
tp90
sS'kf'
p91
(g49
I48
I48
tp92
stp93
a(I77
S'kf - kr * P1 * P2 * P3'
(dp94
S'P2'
p95
(g57
I512
I11
tp96
sS'kr'
p97
(g49
I40
I40
tp98
sS'P1'
p99
(g57
I512
I11
tp100
sS'kf'
p101
(g49
I48
I48
tp102
sS'P3'
p103
(g57
I512
I11
tp104
stp105
a(I49
S'k * R'
(dp106
S'k'
(g49
I35
I35
tp107
sS'R'
(S'reactant'
p108
I509
I10
tp109
stp110
a(I79
S'kf * R - kr'
(dp111
S'kr'
p112
(g49
I48
I48
tp113
sS'R'
(g108
I509
I10
tp114
sS'kf'
p115
(g49
I35
I35
tp116
stp117
a(I80
S'kf * R - kr * P'
(dp118
S'kr'
p119
(g49
I38
I38
tp120
sS'R'
(g108
I509
I10
tp121
sS'kf'
p122
(g49
I35
I35
tp123
sS'P'
(g57
I512
I11
tp124
stp125
a(I82
S'kf * R - kr * P * P'
(dp126
S'kr'
p127
(g49
I39
I39
tp128
sS'R'
(g108
I509
I10
tp129
sS'kf'
p130
(g49
I35
I35
tp131
sS'P'
(g57
I512
I11
tp132
stp133
a(I83
S'kf * R - kr * P1 * P2'
(dp134
S'P2'
p135
(g57
I512
I11
tp136
sS'kr'
p137
(g49
I39
I39
tp138
sS'R'
(g108
I509
I10
tp139
sS'kf'
p140
(g49
I35
I35
tp141
sS'P1'
p142
(g57
I512
I11
tp143
stp144
a(I85
S'kf * R - kr * P * P * P'
(dp145
S'kr'
p146
(g49
I40
I40
tp147
sS'R'
(g108
I509
I10
tp148
sS'kf'
p149
(g49
I35
I35
tp150
sS'P'
(g57
I512
I11
tp151
stp152
a(I86
S'kf * R - kr * P1 * P1 * P2'
(dp153
S'P2'
p154
(g57
I512
I11
tp155
sS'kr'
p156
(g49
I40
I40
tp157
sS'R'
(g108
I509
I10
tp158
sS'kf'
p159
(g49
I35
I35
tp160
sS'P1'
p161
(g57
I512
I11
tp162
stp163
a(I87
S'kf * R - kr * P1 * P2 * P3'
(dp164
S'P2'
p165
(g57
I512
I11
tp166
sS'P3'
p167
(g57
I512
I11
tp168
sS'P1'
p169
(g57
I512
I11
tp170
sS'kf'
p171
(g49
I35
I35
tp172
sS'kr'
p173
(g49
I40
I40
tp174
sS'R'
(g108
I509
I10
tp175
stp176
a(I52
S'k * R * R'
(dp177
S'k'
(g49
I36
I36
tp178
sS'R'
(g108
I509
I10
tp179
stp180
a(I90
S'kf * R * R - kr'
(dp181
S'kr'
p182
(g49
I48
I48
tp183
sS'R'
(g108
I509
I10
tp184
sS'kf'
p185
(g49
I36
I36
tp186
stp187
a(I91
S'kf * R * R - kr * P'
(dp188
S'kr'
p189
(g49
I38
I38
tp190
sS'R'
(g108
I509
I10
tp191
sS'kf'
p192
(g49
I36
I36
tp193
sS'P'
(g57
I512
I11
tp194
stp195
a(I93
S'kf * R * R - kr * P * P'
(dp196
S'kr'
p197
(g49
I39
I39
tp198
sS'R'
(g108
I509
I10
tp199
sS'kf'
p200
(g49
I36
I36
tp201
sS'P'
(g57
I512
I11
tp202
stp203
a(I94
S'kf * R * R - kr * P1 * P2'
(dp204
S'P2'
p205
(g57
I512
I11
tp206
sS'kr'
p207
(g49
I39
I39
tp208
sS'R'
(g108
I509
I10
tp209
sS'kf'
p210
(g49
I36
I36
tp211
sS'P1'
p212
(g57
I512
I11
tp213
stp214
a(I96
S'kf * R * R - kr * P * P * P'
(dp215
S'kr'
p216
(g49
I40
I40
tp217
sS'R'
(g108
I509
I10
tp218
sS'kf'
p219
(g49
I36
I36
tp220
sS'P'
(g57
I512
I11
tp221
stp222
a(I97
S'kf * R * R - kr * P1 * P1 * P2'
(dp223
S'P2'
p224
(g57
I512
I11
tp225
sS'kr'
p226
(g49
I40
I40
tp227
sS'R'
(g108
I509
I10
tp228
sS'kf'
p229
(g49
I36
I36
tp230
sS'P1'
p231
(g57
I512
I11
tp232
stp233
a(I98
S'kf * R * R - kr * P1 * P2 * P3'
(dp234
S'P2'
p235
(g57
I512
I11
tp236
sS'P3'
p237
(g57
I512
I11
tp238
sS'P1'
p239
(g57
I512
I11
tp240
sS'kf'
p241
(g49
I36
I36
tp242
sS'kr'
p243
(g49
I40
I40
tp244
sS'R'
(g108
I509
I10
tp245
stp246
a(I54
S'k * R1 * R2'
(dp247
S'k'
(g49
I36
I36
tp248
sS'R1'
p249
(g108
I509
I10
tp250
sS'R2'
p251
(g108
I509
I10
tp252
stp253
a(I100
S'kf * R1 * R2 - kr'
(dp254
S'kr'
p255
(g49
I48
I48
tp256
sS'kf'
p257
(g49
I36
I36
tp258
sS'R2'
p259
(g108
I509
I10
tp260
sS'R1'
p261
(g108
I509
I10
tp262
stp263
a(I101
S'kf * R1 * R2 - kr * P'
(dp264
S'kr'
p265
(g49
I38
I38
tp266
sS'P'
(g57
I512
I11
tp267
sS'kf'
p268
(g49
I36
I36
tp269
sS'R2'
p270
(g108
I509
I10
tp271
sS'R1'
p272
(g108
I509
I10
tp273
stp274
a(I103
S'kf * R1 * R2 - kr * P * P'
(dp275
S'kr'
p276
(g49
I39
I39
tp277
sS'P'
(g57
I512
I11
tp278
sS'kf'
p279
(g49
I36
I36
tp280
sS'R2'
p281
(g108
I509
I10
tp282
sS'R1'
p283
(g108
I509
I10
tp284
stp285
a(I104
S'kf * R1 * R2 - kr * P1 * P2'
(dp286
S'P2'
p287
(g57
I512
I11
tp288
sS'P1'
p289
(g57
I512
I11
tp290
sS'kf'
p291
(g49
I36
I36
tp292
sS'R2'
p293
(g108
I509
I10
tp294
sS'kr'
p295
(g49
I39
I39
tp296
sS'R1'
p297
(g108
I509
I10
tp298
stp299
a(I106
S'kf * R1 * R2 - kr * P * P * P'
(dp300
S'kr'
p301
(g49
I40
I40
tp302
sS'P'
(g57
I512
I11
tp303
sS'kf'
p304
(g49
I36
I36
tp305
sS'R2'
p306
(g108
I509
I10
tp307
sS'R1'
p308
(g108
I509
I10
tp309
stp310
a(I107
S'kf * R1 * R2 - kr * P1 * P1 * P2'
(dp311
S'P2'
p312
(g57
I512
I11
tp313
sS'P1'
p314
(g57
I512
I11
tp315
sS'kf'
p316
(g49
I36
I36
tp317
sS'R2'
p318
(g108
I509
I10
tp319
sS'kr'
p320
(g49
I40
I40
tp321
sS'R1'
p322
(g108
I509
I10
tp323
stp324
a(I108
S'kf * R1 * R2 - kr * P1 * P2 * P3'
(dp325
S'P2'
p326
(g57
I512
I11
tp327
sS'P3'
p328
(g57
I512
I11
tp329
sS'P1'
p330
(g57
I512
I11
tp331
sS'kf'
p332
(g49
I36
I36
tp333
sS'R2'
p334
(g108
I509
I10
tp335
sS'kr'
p336
(g49
I40
I40
tp337
sS'R1'
p338
(g108
I509
I10
tp339
stp340
a(I57
S'k * R * R * R'
(dp341
S'k'
(g49
I37
I37
tp342
sS'R'
(g108
I509
I10
tp343
stp344
a(I131
S'kf * R * R * R - kr'
(dp345
S'kr'
p346
(g49
I48
I48
tp347
sS'R'
(g108
I509
I10
tp348
sS'kf'
p349
(g49
I37
I37
tp350
stp351
a(I132
S'kf * R * R * R - kr * P'
(dp352
S'kr'
p353
(g49
I38
I38
tp354
sS'R'
(g108
I509
I10
tp355
sS'kf'
p356
(g49
I37
I37
tp357
sS'P'
(g57
I512
I11
tp358
stp359
a(I134
S'kf * R * R * R - kr * P * P'
(dp360
S'kr'
p361
(g49
I39
I39
tp362
sS'R'
(g108
I509
I10
tp363
sS'kf'
p364
(g49
I37
I37
tp365
sS'P'
(g57
I512
I11
tp366
stp367
a(I135
S'kf * R * R * R - kr * P1 * P2'
(dp368
S'P2'
p369
(g57
I512
I11
tp370
sS'kr'
p371
(g49
I39
I39
tp372
sS'R'
(g108
I509
I10
tp373
sS'kf'
p374
(g49
I37
I37
tp375
sS'P1'
p376
(g57
I512
I11
tp377
stp378
a(I137
S'kf * R * R * R - kr * P * P * P'
(dp379
S'kr'
p380
(g49
I40
I40
tp381
sS'R'
(g108
I509
I10
tp382
sS'kf'
p383
(g49
I37
I37
tp384
sS'P'
(g57
I512
I11
tp385
stp386
a(I138
S'kf * R * R * R - kr * P1 * P1 * P2'
(dp387
S'P2'
p388
(g57
I512
I11
tp389
sS'kr'
p390
(g49
I40
I40
tp391
sS'R'
(g108
I509
I10
tp392
sS'kf'
p393
(g49
I37
I37
tp394
sS'P1'
p395
(g57
I512
I11
tp396
stp397
a(I139
S'kf * R * R * R - kr * P1 * P2 * P3'
(dp398
S'P2'
p399
(g57
I512
I11
tp400
sS'P3'
p401
(g57
I512
I11
tp402
sS'P1'
p403
(g57
I512
I11
tp404
sS'kf'
p405
(g49
I37
I37
tp406
sS'kr'
p407
(g49
I40
I40
tp408
sS'R'
(g108
I509
I10
tp409
stp410
a(I59
S'k * R1 * R1 * R2'
(dp411
S'k'
(g49
I37
I37
tp412
sS'R1'
p413
(g108
I509
I10
tp414
sS'R2'
p415
(g108
I509
I10
tp416
stp417
a(I111
S'kf * R1 * R1 * R2 - kr'
(dp418
S'kr'
p419
(g49
I48
I48
tp420
sS'kf'
p421
(g49
I37
I37
tp422
sS'R2'
p423
(g108
I509
I10
tp424
sS'R1'
p425
(g108
I509
I10
tp426
stp427
a(I112
S'kf * R1 * R1 * R2 - kr * P'
(dp428
S'kr'
p429
(g49
I38
I38
tp430
sS'P'
(g57
I512
I11
tp431
sS'kf'
p432
(g49
I37
I37
tp433
sS'R2'
p434
(g108
I509
I10
tp435
sS'R1'
p436
(g108
I509
I10
tp437
stp438
a(I114
S'kf * R1 * R1 * R2 - kr * P * P'
(dp439
S'kr'
p440
(g49
I39
I39
tp441
sS'P'
(g57
I512
I11
tp442
sS'kf'
p443
(g49
I37
I37
tp444
sS'R2'
p445
(g108
I509
I10
tp446
sS'R1'
p447
(g108
I509
I10
tp448
stp449
a(I115
S'kf * R1 * R1 * R2 - kr * P1 * P2'
(dp450
S'P2'
p451
(g57
I512
I11
tp452
sS'P1'
p453
(g57
I512
I11
tp454
sS'kf'
p455
(g49
I37
I37
tp456
sS'R2'
p457
(g108
I509
I10
tp458
sS'kr'
p459
(g49
I39
I39
tp460
sS'R1'
p461
(g108
I509
I10
tp462
stp463
a(I117
S'kf * R1 * R1 * R2 - kr * P * P * P'
(dp464
S'kr'
p465
(g49
I40
I40
tp466
sS'P'
(g57
I512
I11
tp467
sS'kf'
p468
(g49
I37
I37
tp469
sS'R2'
p470
(g108
I509
I10
tp471
sS'R1'
p472
(g108
I509
I10
tp473
stp474
a(I118
S'kf * R1 * R1 * R2 - kr * P1 * P1 * P2'
(dp475
S'P2'
p476
(g57
I512
I11
tp477
sS'P1'
p478
(g57
I512
I11
tp479
sS'kf'
p480
(g49
I37
I37
tp481
sS'R2'
p482
(g108
I509
I10
tp483
sS'kr'
p484
(g49
I40
I40
tp485
sS'R1'
p486
(g108
I509
I10
tp487
stp488
a(I119
S'kf * R1 * R1 * R2 - kr * P1 * P2 * P3'
(dp489
S'P2'
p490
(g57
I512
I11
tp491
sS'P3'
p492
(g57
I512
I11
tp493
sS'P1'
p494
(g57
I512
I11
tp495
sS'kf'
p496
(g49
I37
I37
tp497
sS'R2'
p498
(g108
I509
I10
tp499
sS'kr'
p500
(g49
I40
I40
tp501
sS'R1'
p502
(g108
I509
I10
tp503
stp504
a(I61
S'k * R1 * R2 * R3'
(dp505
S'k'
(g49
I37
I37
tp506
sS'R1'
p507
(g108
I509
I10
tp508
sS'R2'
p509
(g108
I509
I10
tp510
sS'R3'
p511
(g108
I509
I10
tp512
stp513
a(I121
S'kf * R1 * R2 * R3 - kr'
(dp514
S'kr'
p515
(g49
I48
I48
tp516
sS'R3'
p517
(g108
I509
I10
tp518
sS'kf'
p519
(g49
I37
I37
tp520
sS'R2'
p521
(g108
I509
I10
tp522
sS'R1'
p523
(g108
I509
I10
tp524
stp525
a(I122
S'kf * R1 * R2 * R3 - kr * P'
(dp526
S'kf'
p527
(g49
I37
I37
tp528
sS'P'
(g57
I512
I11
tp529
sS'R3'
p530
(g108
I509
I10
tp531
sS'R2'
p532
(g108
I509
I10
tp533
sS'kr'
p534
(g49
I38
I38
tp535
sS'R1'
p536
(g108
I509
I10
tp537
stp538
a(I124
S'kf * R1 * R2 * R3 - kr * P * P'
(dp539
S'kf'
p540
(g49
I37
I37
tp541
sS'P'
(g57
I512
I11
tp542
sS'R3'
p543
(g108
I509
I10
tp544
sS'R2'
p545
(g108
I509
I10
tp546
sS'kr'
p547
(g49
I39
I39
tp548
sS'R1'
p549
(g108
I509
I10
tp550
stp551
a(I125
S'kf * R1 * R2 * R3 - kr * P1 * P2'
(dp552
S'P2'
p553
(g57
I512
I11
tp554
sS'P1'
p555
(g57
I512
I11
tp556
sS'kf'
p557
(g49
I37
I37
tp558
sS'R2'
p559
(g108
I509
I10
tp560
sS'R3'
p561
(g108
I509
I10
tp562
sS'kr'
p563
(g49
I39
I39
tp564
sS'R1'
p565
(g108
I509
I10
tp566
stp567
a(I127
S'kf * R1 * R2 * R3 - kr * P * P * P'
(dp568
S'kf'
p569
(g49
I37
I37
tp570
sS'P'
(g57
I512
I11
tp571
sS'R3'
p572
(g108
I509
I10
tp573
sS'R2'
p574
(g108
I509
I10
tp575
sS'kr'
p576
(g49
I40
I40
tp577
sS'R1'
p578
(g108
I509
I10
tp579
stp580
a(I128
S'kf * R1 * R2 * R3 - kr * P1 * P1 * P2'
(dp581
S'P2'
p582
(g57
I512
I11
tp583
sS'P1'
p584
(g57
I512
I11
tp585
sS'kf'
p586
(g49
I37
I37
tp587
sS'R2'
p588
(g108
I509
I10
tp589
sS'R3'
p590
(g108
I509
I10
tp591
sS'kr'
p592
(g49
I40
I40
tp593
sS'R1'
p594
(g108
I509
I10
tp595
stp596
a(I129
S'kf * R1 * R2 * R3 - kr * P1 * P2 * P3'
(dp597
S'P2'
p598
(g57
I512
I11
tp599
sS'P3'
p600
(g57
I512
I11
tp601
sS'P1'
p602
(g57
I512
I11
tp603
sS'kf'
p604
(g49
I37
I37
tp605
sS'R2'
p606
(g108
I509
I10
tp607
sS'R3'
p608
(g108
I509
I10
tp609
sS'kr'
p610
(g49
I40
I40
tp611
sS'R1'
p612
(g108
I509
I10
tp613
stp614
a.